; Function Attrs: mustprogress uwtable
define void @_ZN11ImageViewer5aboutEv(ptr noundef nonnull align 8 dereferenceable(160) %0) #0 align 2 personality ptr @__gxx_personality_v0 {
  %2 = alloca %class.QString, align 8
  %3 = alloca %class.QString, align 8
  call void @llvm.lifetime.start.p0(i64 24, ptr nonnull %2) #9
  call void @_ZNK11QMetaObject2trEPKcS1_i(ptr dead_on_unwind nonnull writable sret(%class.QString) align 8 %2, ptr noundef nonnull align 8 dereferenceable(56) @_ZN11ImageViewer16staticMetaObjectE, ptr noundef nonnull @.str.2, ptr noundef null, i32 noundef -1)
  call void @llvm.lifetime.start.p0(i64 24, ptr nonnull %3) #9
  invoke void @_ZNK11QMetaObject2trEPKcS1_i(ptr dead_on_unwind nonnull writable sret(%class.QString) align 8 %3, ptr noundef nonnull align 8 dereferenceable(56) @_ZN11ImageViewer16staticMetaObjectE, ptr noundef nonnull @.str.3, ptr noundef null, i32 noundef -1)
          to label %_ZN11ImageViewer2trEPKcS1_i.exit unwind label %13

_ZN11ImageViewer2trEPKcS1_i.exit:                 ; preds = %1
  invoke void @_ZN11QMessageBox5aboutEP7QWidgetRK7QStringS4_(ptr noundef nonnull %0, ptr noundef nonnull align 8 dereferenceable(24) %2, ptr noundef nonnull align 8 dereferenceable(24) %3)
          to label %4 unwind label %15

4:                                                ; preds = %_ZN11ImageViewer2trEPKcS1_i.exit
  %5 = load ptr, ptr %3, align 8, !tbaa !26
  %.not.i.i.i = icmp eq ptr %5, null
  br i1 %.not.i.i.i, label %_ZN7QStringD2Ev.exit, label %_ZN17QArrayDataPointerIDsE5derefEv.exit.i.i

_ZN17QArrayDataPointerIDsE5derefEv.exit.i.i:      ; preds = %4
  %6 = atomicrmw sub ptr %5, i32 1 seq_cst, align 4
  %.not.i.i = icmp eq i32 %6, 1
  br i1 %.not.i.i, label %7, label %_ZN7QStringD2Ev.exit

7:                                                ; preds = %_ZN17QArrayDataPointerIDsE5derefEv.exit.i.i
  %8 = load ptr, ptr %3, align 8, !tbaa !26
  call void @_ZN10QArrayData10deallocateEPS_xx(ptr noundef %8, i64 noundef 2, i64 noundef 8) #9
  br label %_ZN7QStringD2Ev.exit

_ZN7QStringD2Ev.exit:                             ; preds = %4, %_ZN17QArrayDataPointerIDsE5derefEv.exit.i.i, %7
  call void @llvm.lifetime.end.p0(i64 24, ptr nonnull %3) #9
  %9 = load ptr, ptr %2, align 8, !tbaa !26
  %.not.i.i.i4 = icmp eq ptr %9, null
  br i1 %.not.i.i.i4, label %_ZN7QStringD2Ev.exit7, label %_ZN17QArrayDataPointerIDsE5derefEv.exit.i.i5

_ZN17QArrayDataPointerIDsE5derefEv.exit.i.i5:     ; preds = %_ZN7QStringD2Ev.exit
  %10 = atomicrmw sub ptr %9, i32 1 seq_cst, align 4
  %.not.i.i6 = icmp eq i32 %10, 1
  br i1 %.not.i.i6, label %11, label %_ZN7QStringD2Ev.exit7

11:                                               ; preds = %_ZN17QArrayDataPointerIDsE5derefEv.exit.i.i5
  %12 = load ptr, ptr %2, align 8, !tbaa !26
  call void @_ZN10QArrayData10deallocateEPS_xx(ptr noundef %12, i64 noundef 2, i64 noundef 8) #9
  br label %_ZN7QStringD2Ev.exit7

_ZN7QStringD2Ev.exit7:                            ; preds = %_ZN7QStringD2Ev.exit, %_ZN17QArrayDataPointerIDsE5derefEv.exit.i.i5, %11
  call void @llvm.lifetime.end.p0(i64 24, ptr nonnull %2) #9
  ret void

13:                                               ; preds = %1
  %14 = landingpad { ptr, i32 }
          cleanup
  br label %_ZN7QStringD2Ev.exit11

15:                                               ; preds = %_ZN11ImageViewer2trEPKcS1_i.exit
  %16 = landingpad { ptr, i32 }
          cleanup
  %17 = load ptr, ptr %3, align 8, !tbaa !26
  %.not.i.i.i8 = icmp eq ptr %17, null
  br i1 %.not.i.i.i8, label %_ZN7QStringD2Ev.exit11, label %_ZN17QArrayDataPointerIDsE5derefEv.exit.i.i9

_ZN17QArrayDataPointerIDsE5derefEv.exit.i.i9:     ; preds = %15
  %18 = atomicrmw sub ptr %17, i32 1 seq_cst, align 4
  %.not.i.i10 = icmp eq i32 %18, 1
  br i1 %.not.i.i10, label %19, label %_ZN7QStringD2Ev.exit11

19:                                               ; preds = %_ZN17QArrayDataPointerIDsE5derefEv.exit.i.i9
  %20 = load ptr, ptr %3, align 8, !tbaa !26
  call void @_ZN10QArrayData10deallocateEPS_xx(ptr noundef %20, i64 noundef 2, i64 noundef 8) #9
  br label %_ZN7QStringD2Ev.exit11

_ZN7QStringD2Ev.exit11:                           ; preds = %19, %_ZN17QArrayDataPointerIDsE5derefEv.exit.i.i9, %15, %13
  %.pn = phi { ptr, i32 } [ %14, %13 ], [ %16, %15 ], [ %16, %_ZN17QArrayDataPointerIDsE5derefEv.exit.i.i9 ], [ %16, %19 ]
  call void @llvm.lifetime.end.p0(i64 24, ptr nonnull %3) #9
  %21 = load ptr, ptr %2, align 8, !tbaa !26
  %.not.i.i.i12 = icmp eq ptr %21, null
  br i1 %.not.i.i.i12, label %_ZN7QStringD2Ev.exit15, label %_ZN17QArrayDataPointerIDsE5derefEv.exit.i.i13

_ZN17QArrayDataPointerIDsE5derefEv.exit.i.i13:    ; preds = %_ZN7QStringD2Ev.exit11
  %22 = atomicrmw sub ptr %21, i32 1 seq_cst, align 4
  %.not.i.i14 = icmp eq i32 %22, 1
  br i1 %.not.i.i14, label %23, label %_ZN7QStringD2Ev.exit15

23:                                               ; preds = %_ZN17QArrayDataPointerIDsE5derefEv.exit.i.i13
  %24 = load ptr, ptr %2, align 8, !tbaa !26
  call void @_ZN10QArrayData10deallocateEPS_xx(ptr noundef %24, i64 noundef 2, i64 noundef 8) #9
  br label %_ZN7QStringD2Ev.exit15

_ZN7QStringD2Ev.exit15:                           ; preds = %_ZN7QStringD2Ev.exit11, %_ZN17QArrayDataPointerIDsE5derefEv.exit.i.i13, %23
  call void @llvm.lifetime.end.p0(i64 24, ptr nonnull %2) #9
  resume { ptr, i32 } %.pn
}